target datalayout = "e-m:e-p270:32:32-p271:32:32-p272:64:64-i64:64-i128:128-f80:128-n8:16:32:64-S128"
target triple = "x86_64-pc-linux-gnu"

%struct.AVFormatContext = type { ptr, ptr, ptr, ptr, ptr, i32, i32, ptr, i32, ptr, i32, ptr, ptr, i64, i64, i64, i32, i32, i32, i64, i64, ptr, i32, i32, ptr, i32, i32, i32, i32, ptr, i64, i32, i32, %struct.AVIOInterruptCB, i32, i32, i32, i32, i64, i32, i32, i32, i32, i32, i32, i32, i32, i32, i32, i32, i32, i64, i32, i32, i32, i32, i32, ptr, ptr, ptr, ptr, i32, ptr, ptr, ptr, ptr, i32, ptr, ptr, i64, ptr, ptr, ptr, i64 }
%struct.AVIOInterruptCB = type { ptr, ptr }
%struct.AVStream = type { ptr, i32, i32, ptr, ptr, %struct.AVRational, i64, i64, i64, i32, i32, %struct.AVRational, ptr, %struct.AVRational, %struct.AVPacket, i32, %struct.AVRational, i32 }
%struct.AVPacket = type { ptr, i64, i64, ptr, i32, i32, i32, ptr, i32, i64, i64, ptr, ptr, %struct.AVRational }
%struct.AVRational = type { i32, i32 }
%struct.AVCodecParameters = type { i32, i32, i32, ptr, i32, ptr, i32, i32, i64, i32, i32, i32, i32, i32, i32, %struct.AVRational, %struct.AVRational, i32, i32, i32, i32, i32, i32, i32, %struct.AVChannelLayout, i32, i32, i32, i32, i32, i32 }
%struct.AVChannelLayout = type { i32, i32, %union.anon, ptr }
%union.anon = type { i64 }

; Function Attrs: nounwind uwtable
define internal i32 @ads_read_header(ptr noundef %0) #0 {
  %2 = alloca i32, align 4
  %3 = alloca ptr, align 8
  %4 = alloca i32, align 4
  %5 = alloca i32, align 4
  %6 = alloca ptr, align 8
  %7 = alloca i64, align 8
  %8 = alloca i32, align 4
  store ptr %0, ptr %3, align 8, !tbaa !13
  call void @llvm.lifetime.start.p0(i64 4, ptr %4) #5
  call void @llvm.lifetime.start.p0(i64 4, ptr %5) #5
  call void @llvm.lifetime.start.p0(i64 8, ptr %6) #5
  call void @llvm.lifetime.start.p0(i64 8, ptr %7) #5
  %9 = load ptr, ptr %3, align 8, !tbaa !13
  %10 = call ptr @avformat_new_stream(ptr noundef %9, ptr noundef null)
  store ptr %10, ptr %6, align 8, !tbaa !15
  %11 = load ptr, ptr %6, align 8, !tbaa !15
  %12 = icmp ne ptr %11, null
  br i1 %12, label %14, label %13

13:                                               ; preds = %1
  store i32 -12, ptr %2, align 4
  store i32 1, ptr %8, align 4
  br label %144

14:                                               ; preds = %1
  %15 = load ptr, ptr %3, align 8, !tbaa !13
  %16 = getelementptr inbounds nuw %struct.AVFormatContext, ptr %15, i32 0, i32 4
  %17 = load ptr, ptr %16, align 8, !tbaa !17
  %18 = call i64 @avio_skip(ptr noundef %17, i64 noundef 8)
  %19 = load ptr, ptr %6, align 8, !tbaa !15
  %20 = getelementptr inbounds nuw %struct.AVStream, ptr %19, i32 0, i32 3
  %21 = load ptr, ptr %20, align 8, !tbaa !32
  %22 = getelementptr inbounds nuw %struct.AVCodecParameters, ptr %21, i32 0, i32 0
  store i32 1, ptr %22, align 8, !tbaa !39
  %23 = load ptr, ptr %3, align 8, !tbaa !13
  %24 = getelementptr inbounds nuw %struct.AVFormatContext, ptr %23, i32 0, i32 4
  %25 = load ptr, ptr %24, align 8, !tbaa !17
  %26 = call i32 @avio_rl32(ptr noundef %25)
  store i32 %26, ptr %5, align 4, !tbaa !42
  %27 = load ptr, ptr %3, align 8, !tbaa !13
  %28 = getelementptr inbounds nuw %struct.AVFormatContext, ptr %27, i32 0, i32 4
  %29 = load ptr, ptr %28, align 8, !tbaa !17
  %30 = call i32 @avio_rl32(ptr noundef %29)
  %31 = load ptr, ptr %6, align 8, !tbaa !15
  %32 = getelementptr inbounds nuw %struct.AVStream, ptr %31, i32 0, i32 3
  %33 = load ptr, ptr %32, align 8, !tbaa !32
  %34 = getelementptr inbounds nuw %struct.AVCodecParameters, ptr %33, i32 0, i32 25
  store i32 %30, ptr %34, align 8, !tbaa !43
  %35 = load ptr, ptr %6, align 8, !tbaa !15
  %36 = getelementptr inbounds nuw %struct.AVStream, ptr %35, i32 0, i32 3
  %37 = load ptr, ptr %36, align 8, !tbaa !32
  %38 = getelementptr inbounds nuw %struct.AVCodecParameters, ptr %37, i32 0, i32 25
  %39 = load i32, ptr %38, align 8, !tbaa !43
  %40 = icmp sle i32 %39, 0
  br i1 %40, label %41, label %42

41:                                               ; preds = %14
  store i32 -1094995529, ptr %2, align 4
  store i32 1, ptr %8, align 4
  br label %144

42:                                               ; preds = %14
  %43 = load ptr, ptr %3, align 8, !tbaa !13
  %44 = getelementptr inbounds nuw %struct.AVFormatContext, ptr %43, i32 0, i32 4
  %45 = load ptr, ptr %44, align 8, !tbaa !17
  %46 = call i32 @avio_rl32(ptr noundef %45)
  %47 = load ptr, ptr %6, align 8, !tbaa !15
  %48 = getelementptr inbounds nuw %struct.AVStream, ptr %47, i32 0, i32 3
  %49 = load ptr, ptr %48, align 8, !tbaa !32
  %50 = getelementptr inbounds nuw %struct.AVCodecParameters, ptr %49, i32 0, i32 24
  %51 = getelementptr inbounds nuw %struct.AVChannelLayout, ptr %50, i32 0, i32 1
  store i32 %46, ptr %51, align 4, !tbaa !44
  %52 = load ptr, ptr %6, align 8, !tbaa !15
  %53 = getelementptr inbounds nuw %struct.AVStream, ptr %52, i32 0, i32 3
  %54 = load ptr, ptr %53, align 8, !tbaa !32
  %55 = getelementptr inbounds nuw %struct.AVCodecParameters, ptr %54, i32 0, i32 24
  %56 = getelementptr inbounds nuw %struct.AVChannelLayout, ptr %55, i32 0, i32 1
  %57 = load i32, ptr %56, align 4, !tbaa !44
  %58 = icmp sle i32 %57, 0
  br i1 %58, label %59, label %60

59:                                               ; preds = %42
  store i32 -1094995529, ptr %2, align 4
  store i32 1, ptr %8, align 4
  br label %144

60:                                               ; preds = %42
  %61 = load ptr, ptr %3, align 8, !tbaa !13
  %62 = getelementptr inbounds nuw %struct.AVFormatContext, ptr %61, i32 0, i32 4
  %63 = load ptr, ptr %62, align 8, !tbaa !17
  %64 = call i32 @avio_rl32(ptr noundef %63)
  store i32 %64, ptr %4, align 4, !tbaa !42
  %65 = load i32, ptr %4, align 4, !tbaa !42
  %66 = icmp sle i32 %65, 0
  br i1 %66, label %77, label %67

67:                                               ; preds = %60
  %68 = load i32, ptr %4, align 4, !tbaa !42
  %69 = load ptr, ptr %6, align 8, !tbaa !15
  %70 = getelementptr inbounds nuw %struct.AVStream, ptr %69, i32 0, i32 3
  %71 = load ptr, ptr %70, align 8, !tbaa !32
  %72 = getelementptr inbounds nuw %struct.AVCodecParameters, ptr %71, i32 0, i32 24
  %73 = getelementptr inbounds nuw %struct.AVChannelLayout, ptr %72, i32 0, i32 1
  %74 = load i32, ptr %73, align 4, !tbaa !44
  %75 = sdiv i32 2147483647, %74
  %76 = icmp sgt i32 %68, %75
  br i1 %76, label %77, label %78

77:                                               ; preds = %67, %60
  store i32 -1094995529, ptr %2, align 4
  store i32 1, ptr %8, align 4
  br label %144

78:                                               ; preds = %67
  %79 = load i32, ptr %5, align 4, !tbaa !42
  %80 = icmp eq i32 %79, 1
  br i1 %80, label %81, label %86

81:                                               ; preds = %78
  %82 = load ptr, ptr %6, align 8, !tbaa !15
  %83 = getelementptr inbounds nuw %struct.AVStream, ptr %82, i32 0, i32 3
  %84 = load ptr, ptr %83, align 8, !tbaa !32
  %85 = getelementptr inbounds nuw %struct.AVCodecParameters, ptr %84, i32 0, i32 1
  store i32 65554, ptr %85, align 4, !tbaa !45
  br label %91

86:                                               ; preds = %78
  %87 = load ptr, ptr %6, align 8, !tbaa !15
  %88 = getelementptr inbounds nuw %struct.AVStream, ptr %87, i32 0, i32 3
  %89 = load ptr, ptr %88, align 8, !tbaa !32
  %90 = getelementptr inbounds nuw %struct.AVCodecParameters, ptr %89, i32 0, i32 1
  store i32 69669, ptr %90, align 4, !tbaa !45
  br label %91

91:                                               ; preds = %86, %81
  %92 = load ptr, ptr %6, align 8, !tbaa !15
  %93 = getelementptr inbounds nuw %struct.AVStream, ptr %92, i32 0, i32 3
  %94 = load ptr, ptr %93, align 8, !tbaa !32
  %95 = getelementptr inbounds nuw %struct.AVCodecParameters, ptr %94, i32 0, i32 24
  %96 = getelementptr inbounds nuw %struct.AVChannelLayout, ptr %95, i32 0, i32 1
  %97 = load i32, ptr %96, align 4, !tbaa !44
  %98 = load i32, ptr %4, align 4, !tbaa !42
  %99 = mul nsw i32 %97, %98
  %100 = load ptr, ptr %6, align 8, !tbaa !15
  %101 = getelementptr inbounds nuw %struct.AVStream, ptr %100, i32 0, i32 3
  %102 = load ptr, ptr %101, align 8, !tbaa !32
  %103 = getelementptr inbounds nuw %struct.AVCodecParameters, ptr %102, i32 0, i32 26
  store i32 %99, ptr %103, align 4, !tbaa !46
  %104 = load ptr, ptr %3, align 8, !tbaa !13
  %105 = getelementptr inbounds nuw %struct.AVFormatContext, ptr %104, i32 0, i32 4
  %106 = load ptr, ptr %105, align 8, !tbaa !17
  %107 = call i64 @avio_skip(ptr noundef %106, i64 noundef 12)
  %108 = load ptr, ptr %3, align 8, !tbaa !13
  %109 = getelementptr inbounds nuw %struct.AVFormatContext, ptr %108, i32 0, i32 4
  %110 = load ptr, ptr %109, align 8, !tbaa !17
  %111 = call i32 @avio_rl32(ptr noundef %110)
  %112 = zext i32 %111 to i64
  store i64 %112, ptr %7, align 8, !tbaa !47
  %113 = load ptr, ptr %6, align 8, !tbaa !15
  %114 = getelementptr inbounds nuw %struct.AVStream, ptr %113, i32 0, i32 3
  %115 = load ptr, ptr %114, align 8, !tbaa !32
  %116 = getelementptr inbounds nuw %struct.AVCodecParameters, ptr %115, i32 0, i32 1
  %117 = load i32, ptr %116, align 4, !tbaa !45
  %118 = icmp eq i32 %117, 69669
  br i1 %118, label %119, label %137

119:                                              ; preds = %91
  %120 = load i64, ptr %7, align 8, !tbaa !47
  %121 = icmp sge i64 %120, 64
  br i1 %121, label %122, label %137

122:                                              ; preds = %119
  %123 = load i64, ptr %7, align 8, !tbaa !47
  %124 = sub nsw i64 %123, 64
  %125 = sdiv i64 %124, 16
  %126 = load ptr, ptr %6, align 8, !tbaa !15
  %127 = getelementptr inbounds nuw %struct.AVStream, ptr %126, i32 0, i32 3
  %128 = load ptr, ptr %127, align 8, !tbaa !32
  %129 = getelementptr inbounds nuw %struct.AVCodecParameters, ptr %128, i32 0, i32 24
  %130 = getelementptr inbounds nuw %struct.AVChannelLayout, ptr %129, i32 0, i32 1
  %131 = load i32, ptr %130, align 4, !tbaa !44
  %132 = sext i32 %131 to i64
  %133 = sdiv i64 %125, %132
  %134 = mul nsw i64 %133, 28
  %135 = load ptr, ptr %6, align 8, !tbaa !15
  %136 = getelementptr inbounds nuw %struct.AVStream, ptr %135, i32 0, i32 7
  store i64 %134, ptr %136, align 8, !tbaa !48
  br label %137

137:                                              ; preds = %122, %119, %91
  %138 = load ptr, ptr %6, align 8, !tbaa !15
  %139 = load ptr, ptr %6, align 8, !tbaa !15
  %140 = getelementptr inbounds nuw %struct.AVStream, ptr %139, i32 0, i32 3
  %141 = load ptr, ptr %140, align 8, !tbaa !32
  %142 = getelementptr inbounds nuw %struct.AVCodecParameters, ptr %141, i32 0, i32 25
  %143 = load i32, ptr %142, align 8, !tbaa !43
  call void @avpriv_set_pts_info(ptr noundef %138, i32 noundef 64, i32 noundef 1, i32 noundef %143)
  store i32 0, ptr %2, align 4
  store i32 1, ptr %8, align 4
  br label %144

144:                                              ; preds = %137, %77, %59, %41, %13
  call void @llvm.lifetime.end.p0(i64 8, ptr %7) #5
  call void @llvm.lifetime.end.p0(i64 8, ptr %6) #5
  call void @llvm.lifetime.end.p0(i64 4, ptr %5) #5
  call void @llvm.lifetime.end.p0(i64 4, ptr %4) #5
  %145 = load i32, ptr %2, align 4
  ret i32 %145
}