; Function Attrs: nounwind uwtable
define internal range(i32 -1094995529, 1) i32 @ads_read_header(ptr noundef %0) #1 {
  %2 = tail call ptr @avformat_new_stream(ptr noundef %0, ptr noundef null) #4
  %.not = icmp eq ptr %2, null
  br i1 %.not, label %58, label %3

3:                                                ; preds = %1
  %4 = getelementptr inbounds nuw i8, ptr %0, i64 32
  %5 = load ptr, ptr %4, align 8, !tbaa !11
  %6 = tail call i64 @avio_skip(ptr noundef %5, i64 noundef 8) #4
  %7 = getelementptr inbounds nuw i8, ptr %2, i64 16
  %8 = load ptr, ptr %7, align 8, !tbaa !26
  store i32 1, ptr %8, align 8, !tbaa !33
  %9 = load ptr, ptr %4, align 8, !tbaa !11
  %10 = tail call i32 @avio_rl32(ptr noundef %9) #4
  %11 = load ptr, ptr %4, align 8, !tbaa !11
  %12 = tail call i32 @avio_rl32(ptr noundef %11) #4
  %13 = load ptr, ptr %7, align 8, !tbaa !26
  %14 = getelementptr inbounds nuw i8, ptr %13, i64 152
  store i32 %12, ptr %14, align 8, !tbaa !36
  %15 = icmp slt i32 %12, 1
  br i1 %15, label %58, label %16

16:                                               ; preds = %3
  %17 = load ptr, ptr %4, align 8, !tbaa !11
  %18 = tail call i32 @avio_rl32(ptr noundef %17) #4
  %19 = load ptr, ptr %7, align 8, !tbaa !26
  %20 = getelementptr inbounds nuw i8, ptr %19, i64 132
  store i32 %18, ptr %20, align 4, !tbaa !37
  %21 = icmp slt i32 %18, 1
  br i1 %21, label %58, label %22

22:                                               ; preds = %16
  %23 = load ptr, ptr %4, align 8, !tbaa !11
  %24 = tail call i32 @avio_rl32(ptr noundef %23) #4
  %25 = icmp slt i32 %24, 1
  br i1 %25, label %58, label %26

26:                                               ; preds = %22
  %27 = load ptr, ptr %7, align 8, !tbaa !26
  %28 = getelementptr inbounds nuw i8, ptr %27, i64 132
  %29 = load i32, ptr %28, align 4, !tbaa !37
  %30 = sdiv i32 2147483647, %29
  %31 = icmp sgt i32 %24, %30
  br i1 %31, label %58, label %32

32:                                               ; preds = %26
  %33 = icmp eq i32 %10, 1
  %spec.select = select i1 %33, i32 65554, i32 69669
  %34 = getelementptr inbounds nuw i8, ptr %27, i64 4
  store i32 %spec.select, ptr %34, align 4, !tbaa !38
  %35 = mul nsw i32 %29, %24
  %36 = getelementptr inbounds nuw i8, ptr %27, i64 156
  store i32 %35, ptr %36, align 4, !tbaa !39
  %37 = load ptr, ptr %4, align 8, !tbaa !11
  %38 = tail call i64 @avio_skip(ptr noundef %37, i64 noundef 12) #4
  %39 = load ptr, ptr %4, align 8, !tbaa !11
  %40 = tail call i32 @avio_rl32(ptr noundef %39) #4
  %41 = load ptr, ptr %7, align 8, !tbaa !26
  %42 = getelementptr inbounds nuw i8, ptr %41, i64 4
  %43 = load i32, ptr %42, align 4, !tbaa !38
  %44 = icmp eq i32 %43, 69669
  %45 = icmp ugt i32 %40, 63
  %or.cond = select i1 %44, i1 %45, i1 false
  br i1 %or.cond, label %46, label %55

46:                                               ; preds = %32
  %47 = zext i32 %40 to i64
  %48 = add nuw nsw i64 %47, 68719476672
  %49 = lshr i64 %48, 4
  %50 = getelementptr inbounds nuw i8, ptr %41, i64 132
  %51 = load i32, ptr %50, align 4, !tbaa !37
  %.lhs.trunc = trunc i64 %49 to i32
  %52 = sdiv i32 %.lhs.trunc, %51
  %.sext = sext i32 %52 to i64
  %53 = mul nsw i64 %.sext, 28
  %54 = getelementptr inbounds nuw i8, ptr %2, i64 48
  store i64 %53, ptr %54, align 8, !tbaa !40
  br label %55

55:                                               ; preds = %46, %32
  %56 = getelementptr inbounds nuw i8, ptr %41, i64 152
  %57 = load i32, ptr %56, align 8, !tbaa !36
  tail call void @avpriv_set_pts_info(ptr noundef nonnull %2, i32 noundef 64, i32 noundef 1, i32 noundef %57) #4
  br label %58

58:                                               ; preds = %22, %26, %16, %3, %1, %55
  %.0 = phi i32 [ 0, %55 ], [ -12, %1 ], [ -1094995529, %3 ], [ -1094995529, %16 ], [ -1094995529, %26 ], [ -1094995529, %22 ]
  ret i32 %.0
}